; Function Attrs: mustprogress nofree norecurse nosync nounwind willreturn memory(argmem: readwrite) uwtable
define internal fastcc noundef range(i64 -70, 20) i64 @_ZN11duckdb_zstdL21ZSTD_writeFrameHeaderEPvmPKNS_18ZSTD_CCtx_params_sEmj(ptr noundef writeonly captures(none) %0, i64 noundef %1, ptr noundef readonly captures(none) %2, i64 noundef %3, i32 noundef %4) unnamed_addr #9 {
  %6 = icmp ne i32 %4, 0
  %7 = zext i1 %6 to i32
  %8 = icmp ugt i32 %4, 255
  %9 = zext i1 %8 to i32
  %10 = add nuw nsw i32 %7, %9
  %11 = icmp ugt i32 %4, 65535
  %12 = zext i1 %11 to i32
  %13 = add nuw nsw i32 %10, %12
  %14 = getelementptr inbounds nuw i8, ptr %2, i64 32
  %15 = getelementptr inbounds nuw i8, ptr %2, i64 40
  %16 = load i32, ptr %15, align 8, !tbaa !110
  %.not = icmp eq i32 %16, 0
  %17 = select i1 %.not, i32 %13, i32 0
  %18 = getelementptr inbounds nuw i8, ptr %2, i64 36
  %19 = load i32, ptr %18, align 4, !tbaa !109
  %20 = icmp sgt i32 %19, 0
  %21 = getelementptr inbounds nuw i8, ptr %2, i64 4
  %22 = load i32, ptr %21, align 4, !tbaa !102
  %23 = shl nuw i32 1, %22
  %24 = load i32, ptr %14, align 8, !tbaa !58
  %25 = icmp ne i32 %24, 0
  %26 = zext i32 %23 to i64
  %27 = icmp ule i64 %3, %26
  %28 = select i1 %25, i1 %27, i1 false
  %.tr = trunc i32 %22 to i8
  %29 = shl i8 %.tr, 3
  %30 = add i8 %29, -80
  br i1 %25, label %31, label %40

31:                                               ; preds = %5
  %32 = icmp ugt i64 %3, 255
  %33 = zext i1 %32 to i32
  %34 = icmp ugt i64 %3, 65791
  %35 = zext i1 %34 to i32
  %36 = add nuw nsw i32 %33, %35
  %37 = icmp ugt i64 %3, 4294967294
  %38 = zext i1 %37 to i32
  %39 = add nuw nsw i32 %36, %38
  br label %40

40:                                               ; preds = %5, %31
  %41 = phi i32 [ %39, %31 ], [ 0, %5 ]
  %42 = select i1 %20, i32 4, i32 0
  %43 = add nuw nsw i32 %42, %17
  %44 = select i1 %28, i32 32, i32 0
  %45 = or disjoint i32 %44, %43
  %46 = shl nuw nsw i32 %41, 6
  %47 = or disjoint i32 %46, %45
  %48 = trunc nuw i32 %47 to i8
  %49 = icmp ult i64 %1, 18
  br i1 %49, label %90, label %50

50:                                               ; preds = %40
  %51 = load i32, ptr %2, align 8, !tbaa !101
  %52 = icmp eq i32 %51, 0
  br i1 %52, label %53, label %54

53:                                               ; preds = %50
  store i32 -47205080, ptr %0, align 1, !tbaa !62
  br label %54

54:                                               ; preds = %53, %50
  %.0 = phi i64 [ 4, %53 ], [ 0, %50 ]
  %55 = or disjoint i64 %.0, 1
  %56 = getelementptr inbounds nuw i8, ptr %0, i64 %.0
  store i8 %48, ptr %56, align 1, !tbaa !211
  br i1 %28, label %60, label %57

57:                                               ; preds = %54
  %58 = or disjoint i64 %.0, 2
  %59 = getelementptr inbounds nuw i8, ptr %0, i64 %55
  store i8 %30, ptr %59, align 1, !tbaa !211
  br label %60

60:                                               ; preds = %57, %54
  %.1 = phi i64 [ %55, %54 ], [ %58, %57 ]
  switch i32 %17, label %72 [
    i32 3, label %69
    i32 1, label %61
    i32 2, label %65
  ]

61:                                               ; preds = %60
  %62 = trunc i32 %4 to i8
  %63 = getelementptr inbounds nuw i8, ptr %0, i64 %.1
  store i8 %62, ptr %63, align 1, !tbaa !211
  %64 = add nuw nsw i64 %.1, 1
  br label %72

65:                                               ; preds = %60
  %66 = getelementptr inbounds nuw i8, ptr %0, i64 %.1
  %67 = trunc i32 %4 to i16
  store i16 %67, ptr %66, align 1, !tbaa !247
  %68 = add nuw nsw i64 %.1, 2
  br label %72

69:                                               ; preds = %60
  %70 = getelementptr inbounds nuw i8, ptr %0, i64 %.1
  store i32 %4, ptr %70, align 1, !tbaa !62
  %71 = add nuw nsw i64 %.1, 4
  br label %72

72:                                               ; preds = %60, %69, %65, %61
  %.2 = phi i64 [ %.1, %60 ], [ %68, %65 ], [ %64, %61 ], [ %71, %69 ]
  switch i32 %41, label %73 [
    i32 3, label %87
    i32 1, label %78
    i32 2, label %83
  ]

73:                                               ; preds = %72
  br i1 %28, label %74, label %90

74:                                               ; preds = %73
  %75 = trunc i64 %3 to i8
  %76 = add nuw nsw i64 %.2, 1
  %77 = getelementptr inbounds nuw i8, ptr %0, i64 %.2
  store i8 %75, ptr %77, align 1, !tbaa !211
  br label %90

78:                                               ; preds = %72
  %79 = getelementptr inbounds nuw i8, ptr %0, i64 %.2
  %80 = trunc i64 %3 to i16
  %81 = add i16 %80, -256
  store i16 %81, ptr %79, align 1, !tbaa !247
  %82 = add nuw nsw i64 %.2, 2
  br label %90

83:                                               ; preds = %72
  %84 = getelementptr inbounds nuw i8, ptr %0, i64 %.2
  %85 = trunc i64 %3 to i32
  store i32 %85, ptr %84, align 1, !tbaa !62
  %86 = add nuw nsw i64 %.2, 4
  br label %90

87:                                               ; preds = %72
  %88 = getelementptr inbounds nuw i8, ptr %0, i64 %.2
  store i64 %3, ptr %88, align 1, !tbaa !75
  %89 = add nuw nsw i64 %.2, 8
  br label %90

90:                                               ; preds = %78, %83, %87, %74, %73, %40
  %.061 = phi i64 [ -70, %40 ], [ %76, %74 ], [ %.2, %73 ], [ %86, %83 ], [ %82, %78 ], [ %89, %87 ]
  ret i64 %.061
}